target datalayout = "e-m:e-p270:32:32-p271:32:32-p272:64:64-i64:64-i128:128-f80:128-n8:16:32:64-S128"
target triple = "x86_64-unknown-linux-gnu"

%struct.QObject = type { %struct.QObjectBase_ }
%struct.QObjectBase_ = type { i32, i64 }

@error_abort = external global ptr, align 8
@.str.18 = private unnamed_addr constant [5 x i8] c"data\00", align 1
@.str.19 = private unnamed_addr constant [6 x i8] c"%*s%s\00", align 1
@.str.20 = private unnamed_addr constant [1 x i8] zeroinitializer, align 1
@.str.43 = private unnamed_addr constant [59 x i8] c"QTYPE_NONE < obj->base.type && obj->base.type < QTYPE__MAX\00", align 1
@.str.44 = private unnamed_addr constant [105 x i8] c"/home/dtcxzyw/WorkSpace/Projects/compilers/llvm-opt-benchmark/bench/qemu/qemu/include/qapi/qmp/qobject.h\00", align 1
@__PRETTY_FUNCTION__.qobject_type = private unnamed_addr constant [36 x i8] c"QType qobject_type(const QObject *)\00", align 1
@.str.49 = private unnamed_addr constant [25 x i8] c"!obj || obj->base.refcnt\00", align 1
@__PRETTY_FUNCTION__.qobject_unref_impl = private unnamed_addr constant [35 x i8] c"void qobject_unref_impl(QObject *)\00", align 1

; Function Attrs: nounwind sspstrong uwtable
define internal i32 @qobject_type(ptr noundef %obj) #0 {
entry:
  %obj.addr = alloca ptr, align 8
  store ptr %obj, ptr %obj.addr, align 8
  %0 = load ptr, ptr %obj.addr, align 8
  %base = getelementptr inbounds %struct.QObject, ptr %0, i32 0, i32 0
  %type = getelementptr inbounds %struct.QObjectBase_, ptr %base, i32 0, i32 0
  %1 = load i32, ptr %type, align 8
  %cmp = icmp ult i32 0, %1
  br i1 %cmp, label %land.lhs.true, label %if.else

land.lhs.true:                                    ; preds = %entry
  %2 = load ptr, ptr %obj.addr, align 8
  %base1 = getelementptr inbounds %struct.QObject, ptr %2, i32 0, i32 0
  %type2 = getelementptr inbounds %struct.QObjectBase_, ptr %base1, i32 0, i32 0
  %3 = load i32, ptr %type2, align 8
  %cmp3 = icmp ult i32 %3, 7
  br i1 %cmp3, label %if.then, label %if.else

if.then:                                          ; preds = %land.lhs.true
  br label %if.end

if.else:                                          ; preds = %land.lhs.true, %entry
  call void @__assert_fail(ptr noundef @.str.43, ptr noundef @.str.44, i32 noundef 126, ptr noundef @__PRETTY_FUNCTION__.qobject_type) #11
  unreachable

if.end:                                           ; preds = %if.then
  %4 = load ptr, ptr %obj.addr, align 8
  %base4 = getelementptr inbounds %struct.QObject, ptr %4, i32 0, i32 0
  %type5 = getelementptr inbounds %struct.QObjectBase_, ptr %base4, i32 0, i32 0
  %5 = load i32, ptr %type5, align 8
  ret i32 %5
}

; Function Attrs: nounwind sspstrong uwtable
define internal void @qobject_unref_impl(ptr noundef %obj) #0 {
entry:
  %obj.addr = alloca ptr, align 8
  store ptr %obj, ptr %obj.addr, align 8
  %0 = load ptr, ptr %obj.addr, align 8
  %tobool = icmp ne ptr %0, null
  br i1 %tobool, label %lor.lhs.false, label %if.then

lor.lhs.false:                                    ; preds = %entry
  %1 = load ptr, ptr %obj.addr, align 8
  %base = getelementptr inbounds %struct.QObject, ptr %1, i32 0, i32 0
  %refcnt = getelementptr inbounds %struct.QObjectBase_, ptr %base, i32 0, i32 1
  %2 = load i64, ptr %refcnt, align 8
  %tobool1 = icmp ne i64 %2, 0
  br i1 %tobool1, label %if.then, label %if.else

if.then:                                          ; preds = %lor.lhs.false, %entry
  br label %if.end

if.else:                                          ; preds = %lor.lhs.false
  call void @__assert_fail(ptr noundef @.str.49, ptr noundef @.str.44, i32 noundef 97, ptr noundef @__PRETTY_FUNCTION__.qobject_unref_impl) #11
  unreachable

if.end:                                           ; preds = %if.then
  %3 = load ptr, ptr %obj.addr, align 8
  %tobool2 = icmp ne ptr %3, null
  br i1 %tobool2, label %land.lhs.true, label %if.end6

land.lhs.true:                                    ; preds = %if.end
  %4 = load ptr, ptr %obj.addr, align 8
  %base3 = getelementptr inbounds %struct.QObject, ptr %4, i32 0, i32 0
  %refcnt4 = getelementptr inbounds %struct.QObjectBase_, ptr %base3, i32 0, i32 1
  %5 = load i64, ptr %refcnt4, align 8
  %dec = add i64 %5, -1
  store i64 %dec, ptr %refcnt4, align 8
  %cmp = icmp eq i64 %dec, 0
  br i1 %cmp, label %if.then5, label %if.end6

if.then5:                                         ; preds = %land.lhs.true
  %6 = load ptr, ptr %obj.addr, align 8
  call void @qobject_destroy(ptr noundef %6)
  br label %if.end6

if.end6:                                          ; preds = %if.then5, %land.lhs.true, %if.end
  ret void
}

; Function Attrs: nounwind sspstrong uwtable
define internal zeroext i1 @qobject_is_empty_dump(ptr noundef %obj) #0 {
entry:
  %retval = alloca i1, align 1
  %obj.addr = alloca ptr, align 8
  store ptr %obj, ptr %obj.addr, align 8
  %0 = load ptr, ptr %obj.addr, align 8
  %call = call i32 @qobject_type(ptr noundef %0)
  switch i32 %call, label %sw.default [
    i32 2, label %sw.bb
    i32 3, label %sw.bb
    i32 6, label %sw.bb
    i32 4, label %sw.bb1
    i32 5, label %sw.bb4
  ]

sw.bb:                                            ; preds = %entry, %entry, %entry
  store i1 false, ptr %retval, align 1
  br label %return

sw.bb1:                                           ; preds = %entry
  %1 = load ptr, ptr %obj.addr, align 8
  %call2 = call ptr @qobject_check_type(ptr noundef %1, i32 noundef 4)
  %call3 = call i64 @qdict_size(ptr noundef %call2)
  %cmp = icmp eq i64 %call3, 0
  store i1 %cmp, ptr %retval, align 1
  br label %return

sw.bb4:                                           ; preds = %entry
  %2 = load ptr, ptr %obj.addr, align 8
  %call5 = call ptr @qobject_check_type(ptr noundef %2, i32 noundef 5)
  %call6 = call i32 @qlist_empty(ptr noundef %call5)
  %tobool = icmp ne i32 %call6, 0
  store i1 %tobool, ptr %retval, align 1
  br label %return

sw.default:                                       ; preds = %entry
  call void @abort() #11
  unreachable

return:                                           ; preds = %sw.bb4, %sw.bb1, %sw.bb
  %3 = load i1, ptr %retval, align 1
  ret i1 %3
}

; Function Attrs: nounwind sspstrong uwtable
define internal ptr @qobject_check_type(ptr noundef %obj, i32 noundef %type) #0 {
entry:
  %retval = alloca ptr, align 8
  %obj.addr = alloca ptr, align 8
  %type.addr = alloca i32, align 4
  store ptr %obj, ptr %obj.addr, align 8
  store i32 %type, ptr %type.addr, align 4
  %0 = load ptr, ptr %obj.addr, align 8
  %tobool = icmp ne ptr %0, null
  br i1 %tobool, label %land.lhs.true, label %if.else

land.lhs.true:                                    ; preds = %entry
  %1 = load ptr, ptr %obj.addr, align 8
  %call = call i32 @qobject_type(ptr noundef %1)
  %2 = load i32, ptr %type.addr, align 4
  %cmp = icmp eq i32 %call, %2
  br i1 %cmp, label %if.then, label %if.else

if.then:                                          ; preds = %land.lhs.true
  %3 = load ptr, ptr %obj.addr, align 8
  store ptr %3, ptr %retval, align 8
  br label %return

if.else:                                          ; preds = %land.lhs.true, %entry
  store ptr null, ptr %retval, align 8
  br label %return

return:                                           ; preds = %if.else, %if.then
  %4 = load ptr, ptr %retval, align 8
  ret ptr %4
}

; Function Attrs: nounwind sspstrong uwtable
define dso_local void @bdrv_image_info_specific_dump(ptr noundef %info_spec, ptr noundef %prefix, i32 noundef %indentation) #0 {
entry:
  %info_spec.addr = alloca ptr, align 8
  %prefix.addr = alloca ptr, align 8
  %indentation.addr = alloca i32, align 4
  %obj = alloca ptr, align 8
  %data = alloca ptr, align 8
  %v = alloca ptr, align 8
  %_obj6 = alloca ptr, align 8
  %tmp = alloca ptr, align 8
  %__mptr = alloca ptr, align 8
  %tmp9 = alloca ptr, align 8
  store ptr %info_spec, ptr %info_spec.addr, align 8
  store ptr %prefix, ptr %prefix.addr, align 8
  store i32 %indentation, ptr %indentation.addr, align 4
  %call = call ptr @qobject_output_visitor_new(ptr noundef %obj)
  store ptr %call, ptr %v, align 8
  %0 = load ptr, ptr %v, align 8
  %call1 = call zeroext i1 @visit_type_ImageInfoSpecific(ptr noundef %0, ptr noundef null, ptr noundef %info_spec.addr, ptr noundef @error_abort)
  %1 = load ptr, ptr %v, align 8
  call void @visit_complete(ptr noundef %1, ptr noundef %obj)
  %2 = load ptr, ptr %obj, align 8
  %call2 = call ptr @qobject_check_type(ptr noundef %2, i32 noundef 4)
  %call3 = call ptr @qdict_get(ptr noundef %call2, ptr noundef @.str.18)
  store ptr %call3, ptr %data, align 8
  %3 = load ptr, ptr %data, align 8
  %call4 = call zeroext i1 @qobject_is_empty_dump(ptr noundef %3)
  br i1 %call4, label %if.end7, label %if.then

if.then:                                          ; preds = %entry
  %4 = load ptr, ptr %prefix.addr, align 8
  %tobool = icmp ne ptr %4, null
  br i1 %tobool, label %if.then5, label %if.end

if.then5:                                         ; preds = %if.then
  %5 = load i32, ptr %indentation.addr, align 4
  %mul = mul i32 %5, 4
  %6 = load ptr, ptr %prefix.addr, align 8
  %call6 = call i32 (ptr, ...) @qemu_printf(ptr noundef @.str.19, i32 noundef %mul, ptr noundef @.str.20, ptr noundef %6)
  br label %if.end

if.end:                                           ; preds = %if.then5, %if.then
  %7 = load i32, ptr %indentation.addr, align 4
  %add = add i32 %7, 1
  %8 = load ptr, ptr %data, align 8
  call void @dump_qobject(i32 noundef %add, ptr noundef %8)
  br label %if.end7

if.end7:                                          ; preds = %if.end, %entry
  %9 = load ptr, ptr %obj, align 8
  store ptr %9, ptr %_obj6, align 8
  %10 = load ptr, ptr %_obj6, align 8
  %tobool8 = icmp ne ptr %10, null
  br i1 %tobool8, label %cond.true, label %cond.false

cond.true:                                        ; preds = %if.end7
  %11 = load ptr, ptr %_obj6, align 8
  %base = getelementptr inbounds %struct.QObject, ptr %11, i32 0, i32 0
  store ptr %base, ptr %__mptr, align 8
  %12 = load ptr, ptr %__mptr, align 8
  %add.ptr = getelementptr i8, ptr %12, i64 0
  store ptr %add.ptr, ptr %tmp9, align 8
  %13 = load ptr, ptr %tmp9, align 8
  br label %cond.end

cond.false:                                       ; preds = %if.end7
  br label %cond.end

cond.end:                                         ; preds = %cond.false, %cond.true
  %cond = phi ptr [ %13, %cond.true ], [ null, %cond.false ]
  store ptr %cond, ptr %tmp, align 8
  %14 = load ptr, ptr %tmp, align 8
  call void @qobject_unref_impl(ptr noundef %14)
  %15 = load ptr, ptr %v, align 8
  call void @visit_free(ptr noundef %15)
  ret void
}