; Function Attrs: nounwind sspstrong uwtable
define dso_local void @bdrv_image_info_specific_dump(ptr noundef %info_spec, ptr noundef %prefix, i32 noundef %indentation) local_unnamed_addr #0 {
entry:
  %info_spec.addr = alloca ptr, align 8
  %obj = alloca ptr, align 8
  store ptr %info_spec, ptr %info_spec.addr, align 8
  %call = call ptr @qobject_output_visitor_new(ptr noundef nonnull %obj) #10
  %call1 = call zeroext i1 @visit_type_ImageInfoSpecific(ptr noundef %call, ptr noundef null, ptr noundef nonnull %info_spec.addr, ptr noundef nonnull @error_abort) #10
  call void @visit_complete(ptr noundef %call, ptr noundef nonnull %obj) #10
  %0 = load ptr, ptr %obj, align 8
  %tobool.not.i = icmp eq ptr %0, null
  br i1 %tobool.not.i, label %if.else.i, label %land.lhs.true.i

land.lhs.true.i:                                  ; preds = %entry
  %obj.val.i = load i32, ptr %0, align 8
  %1 = add i32 %obj.val.i, -1
  %or.cond.i.i = icmp ult i32 %1, 6
  br i1 %or.cond.i.i, label %qobject_type.exit.i, label %if.else.i.i

if.else.i.i:                                      ; preds = %land.lhs.true.i
  call void @__assert_fail(ptr noundef nonnull @.str.43, ptr noundef nonnull @.str.44, i32 noundef 126, ptr noundef nonnull @__PRETTY_FUNCTION__.qobject_type) #13
  unreachable

qobject_type.exit.i:                              ; preds = %land.lhs.true.i
  %cmp.i = icmp eq i32 %obj.val.i, 4
  br i1 %cmp.i, label %qobject_check_type.exit, label %if.else.i

if.else.i:                                        ; preds = %qobject_type.exit.i, %entry
  br label %qobject_check_type.exit

qobject_check_type.exit:                          ; preds = %qobject_type.exit.i, %if.else.i
  %retval.0.i = phi ptr [ null, %if.else.i ], [ %0, %qobject_type.exit.i ]
  %call3 = call ptr @qdict_get(ptr noundef %retval.0.i, ptr noundef nonnull @.str.18) #10
  %obj.val.i7 = load i32, ptr %call3, align 8
  %2 = add i32 %obj.val.i7, -1
  %or.cond.i.i8 = icmp ult i32 %2, 6
  br i1 %or.cond.i.i8, label %qobject_type.exit.i10, label %if.else.i.i9

if.else.i.i9:                                     ; preds = %qobject_check_type.exit
  call void @__assert_fail(ptr noundef nonnull @.str.43, ptr noundef nonnull @.str.44, i32 noundef 126, ptr noundef nonnull @__PRETTY_FUNCTION__.qobject_type) #13
  unreachable

qobject_type.exit.i10:                            ; preds = %qobject_check_type.exit
  switch i32 %obj.val.i7, label %sw.default.i [
    i32 2, label %if.then
    i32 3, label %if.then
    i32 6, label %if.then
    i32 4, label %qobject_is_empty_dump.exit
    i32 5, label %qobject_check_type.exit13.i
  ]

qobject_check_type.exit13.i:                      ; preds = %qobject_type.exit.i10
  %call6.i = call i32 @qlist_empty(ptr noundef nonnull %call3) #10
  %tobool.i.not = icmp eq i32 %call6.i, 0
  br i1 %tobool.i.not, label %if.then, label %if.end7

sw.default.i:                                     ; preds = %qobject_type.exit.i10
  call void @abort() #13
  unreachable

qobject_is_empty_dump.exit:                       ; preds = %qobject_type.exit.i10
  %call3.i = call i64 @qdict_size(ptr noundef nonnull %call3) #10
  %cmp.i12 = icmp eq i64 %call3.i, 0
  br i1 %cmp.i12, label %if.end7, label %if.then

if.then:                                          ; preds = %qobject_type.exit.i10, %qobject_type.exit.i10, %qobject_type.exit.i10, %qobject_check_type.exit13.i, %qobject_is_empty_dump.exit
  %tobool.not = icmp eq ptr %prefix, null
  br i1 %tobool.not, label %if.end, label %if.then5

if.then5:                                         ; preds = %if.then
  %mul = shl i32 %indentation, 2
  %call6 = call i32 (ptr, ...) @qemu_printf(ptr noundef nonnull @.str.19, i32 noundef %mul, ptr noundef nonnull @.str.20, ptr noundef nonnull %prefix) #10
  br label %if.end

if.end:                                           ; preds = %if.then5, %if.then
  %add = add i32 %indentation, 1
  call fastcc void @dump_qobject(i32 noundef %add, ptr noundef nonnull %call3)
  br label %if.end7

if.end7:                                          ; preds = %qobject_check_type.exit13.i, %if.end, %qobject_is_empty_dump.exit
  %3 = load ptr, ptr %obj, align 8
  %tobool8.not = icmp eq ptr %3, null
  br i1 %tobool8.not, label %qobject_unref_impl.exit, label %lor.lhs.false.i

lor.lhs.false.i:                                  ; preds = %if.end7
  %refcnt.i = getelementptr inbounds nuw i8, ptr %3, i64 8
  %4 = load i64, ptr %refcnt.i, align 8
  %tobool1.not.i = icmp eq i64 %4, 0
  br i1 %tobool1.not.i, label %if.else.i16, label %land.lhs.true.i14

if.else.i16:                                      ; preds = %lor.lhs.false.i
  call void @__assert_fail(ptr noundef nonnull @.str.49, ptr noundef nonnull @.str.44, i32 noundef 97, ptr noundef nonnull @__PRETTY_FUNCTION__.qobject_unref_impl) #13
  unreachable

land.lhs.true.i14:                                ; preds = %lor.lhs.false.i
  %dec.i = add i64 %4, -1
  store i64 %dec.i, ptr %refcnt.i, align 8
  %cmp.i15 = icmp eq i64 %dec.i, 0
  br i1 %cmp.i15, label %if.then5.i, label %qobject_unref_impl.exit

if.then5.i:                                       ; preds = %land.lhs.true.i14
  call void @qobject_destroy(ptr noundef nonnull %3) #10
  br label %qobject_unref_impl.exit

qobject_unref_impl.exit:                          ; preds = %if.end7, %land.lhs.true.i14, %if.then5.i
  call void @visit_free(ptr noundef %call) #10
  ret void
}